target datalayout = "e-m:e-p270:32:32-p271:32:32-p272:64:64-i64:64-i128:128-f80:128-n8:16:32:64-S128"
target triple = "x86_64-pc-linux-gnu"

%struct.PJconsts = type { ptr, ptr, ptr, ptr, ptr, ptr, ptr, ptr, ptr, ptr, ptr, ptr, i32, ptr, ptr, ptr, ptr, ptr, ptr, ptr, ptr, double, double, double, double, double, double, double, double, double, double, double, double, double, double, double, double, double, double, double, double, double, double, i32, i32, i32, i32, i32, i32, i32, i32, i32, i32, i32, ptr, ptr, ptr, ptr, ptr, ptr, double, double, double, double, double, double, double, double, double, double, double, i32, [7 x double], i32, ptr, ptr, double, double, i32, [4 x i8], %"class.std::shared_ptr", i8, double, i8, %"class.std::__cxx11::basic_string", %"class.std::__cxx11::basic_string", %"class.std::__cxx11::basic_string", i8, %"class.std::vector", i32, %"class.std::vector.3", i32, i8, i8, i8, ptr }
%"class.std::shared_ptr" = type { %"class.std::__shared_ptr" }
%"class.std::__shared_ptr" = type { ptr, %"class.std::__shared_count" }
%"class.std::__shared_count" = type { ptr }
%"class.std::__cxx11::basic_string" = type { %"struct.std::__cxx11::basic_string<char>::_Alloc_hider", i64, %union.anon }
%"struct.std::__cxx11::basic_string<char>::_Alloc_hider" = type { ptr }
%union.anon = type { i64, [8 x i8] }
%"class.std::vector" = type { %"struct.std::_Vector_base" }
%"struct.std::_Vector_base" = type { %"struct.std::_Vector_base<osgeo::proj::operation::GridDescription, std::allocator<osgeo::proj::operation::GridDescription>>::_Vector_impl" }
%"struct.std::_Vector_base<osgeo::proj::operation::GridDescription, std::allocator<osgeo::proj::operation::GridDescription>>::_Vector_impl" = type { %"struct.std::_Vector_base<osgeo::proj::operation::GridDescription, std::allocator<osgeo::proj::operation::GridDescription>>::_Vector_impl_data" }
%"struct.std::_Vector_base<osgeo::proj::operation::GridDescription, std::allocator<osgeo::proj::operation::GridDescription>>::_Vector_impl_data" = type { ptr, ptr, ptr }
%"class.std::vector.3" = type { %"struct.std::_Vector_base.4" }
%"struct.std::_Vector_base.4" = type { %"struct.std::_Vector_base<PJCoordOperation, std::allocator<PJCoordOperation>>::_Vector_impl" }
%"struct.std::_Vector_base<PJCoordOperation, std::allocator<PJCoordOperation>>::_Vector_impl" = type { %"struct.std::_Vector_base<PJCoordOperation, std::allocator<PJCoordOperation>>::_Vector_impl_data" }
%"struct.std::_Vector_base<PJCoordOperation, std::allocator<PJCoordOperation>>::_Vector_impl_data" = type { ptr, ptr, ptr }
%"struct.(anonymous namespace)::pj_bonne_data" = type { double, double, double, double, ptr }
%struct.PJ_LP = type { double, double }
%struct.PJ_XY = type { double, double }

; Function Attrs: mustprogress nounwind uwtable
define internal { double, double } @_ZL15bonne_s_forward5PJ_LPP8PJconsts(double %0, double %1, ptr noundef %2) #6 {
  %4 = alloca %struct.PJ_XY, align 8
  %5 = alloca %struct.PJ_LP, align 8
  %6 = alloca ptr, align 8
  %7 = alloca ptr, align 8
  %8 = alloca double, align 8
  %9 = alloca double, align 8
  %10 = getelementptr inbounds nuw { double, double }, ptr %5, i32 0, i32 0
  store double %0, ptr %10, align 8
  %11 = getelementptr inbounds nuw { double, double }, ptr %5, i32 0, i32 1
  store double %1, ptr %11, align 8
  store ptr %2, ptr %6, align 8, !tbaa !3
  call void @llvm.memset.p0.i64(ptr align 8 %4, i8 0, i64 16, i1 false)
  call void @llvm.lifetime.start.p0(i64 8, ptr %7) #8
  %12 = load ptr, ptr %6, align 8, !tbaa !3
  %13 = getelementptr inbounds nuw %struct.PJconsts, ptr %12, i32 0, i32 11
  %14 = load ptr, ptr %13, align 8, !tbaa !43
  store ptr %14, ptr %7, align 8, !tbaa !41
  call void @llvm.lifetime.start.p0(i64 8, ptr %8) #8
  call void @llvm.lifetime.start.p0(i64 8, ptr %9) #8
  %15 = load ptr, ptr %7, align 8, !tbaa !41
  %16 = getelementptr inbounds nuw %"struct.(anonymous namespace)::pj_bonne_data", ptr %15, i32 0, i32 1
  %17 = load double, ptr %16, align 8, !tbaa !60
  %18 = load ptr, ptr %7, align 8, !tbaa !41
  %19 = getelementptr inbounds nuw %"struct.(anonymous namespace)::pj_bonne_data", ptr %18, i32 0, i32 0
  %20 = load double, ptr %19, align 8, !tbaa !48
  %21 = fadd double %17, %20
  %22 = getelementptr inbounds nuw %struct.PJ_LP, ptr %5, i32 0, i32 1
  %23 = load double, ptr %22, align 8, !tbaa !64
  %24 = fsub double %21, %23
  store double %24, ptr %9, align 8, !tbaa !56
  %25 = load double, ptr %9, align 8, !tbaa !56
  %26 = call double @llvm.fabs.f64(double %25)
  %27 = fcmp ogt double %26, 1.000000e-10
  br i1 %27, label %28, label %51

28:                                               ; preds = %3
  %29 = getelementptr inbounds nuw %struct.PJ_LP, ptr %5, i32 0, i32 0
  %30 = load double, ptr %29, align 8, !tbaa !66
  %31 = getelementptr inbounds nuw %struct.PJ_LP, ptr %5, i32 0, i32 1
  %32 = load double, ptr %31, align 8, !tbaa !64
  %33 = call double @cos(double noundef %32) #8, !tbaa !54
  %34 = fmul double %30, %33
  %35 = load double, ptr %9, align 8, !tbaa !56
  %36 = fdiv double %34, %35
  store double %36, ptr %8, align 8, !tbaa !56
  %37 = load double, ptr %9, align 8, !tbaa !56
  %38 = load double, ptr %8, align 8, !tbaa !56
  %39 = call double @sin(double noundef %38) #8, !tbaa !54
  %40 = fmul double %37, %39
  %41 = getelementptr inbounds nuw %struct.PJ_XY, ptr %4, i32 0, i32 0
  store double %40, ptr %41, align 8, !tbaa !63
  %42 = load ptr, ptr %7, align 8, !tbaa !41
  %43 = getelementptr inbounds nuw %"struct.(anonymous namespace)::pj_bonne_data", ptr %42, i32 0, i32 1
  %44 = load double, ptr %43, align 8, !tbaa !60
  %45 = load double, ptr %9, align 8, !tbaa !56
  %46 = load double, ptr %8, align 8, !tbaa !56
  %47 = call double @cos(double noundef %46) #8, !tbaa !54
  %48 = fneg double %45
  %49 = call double @llvm.fmuladd.f64(double %48, double %47, double %44)
  %50 = getelementptr inbounds nuw %struct.PJ_XY, ptr %4, i32 0, i32 1
  store double %49, ptr %50, align 8, !tbaa !61
  br label %54

51:                                               ; preds = %3
  %52 = getelementptr inbounds nuw %struct.PJ_XY, ptr %4, i32 0, i32 1
  store double 0.000000e+00, ptr %52, align 8, !tbaa !61
  %53 = getelementptr inbounds nuw %struct.PJ_XY, ptr %4, i32 0, i32 0
  store double 0.000000e+00, ptr %53, align 8, !tbaa !63
  br label %54

54:                                               ; preds = %51, %28
  call void @llvm.lifetime.end.p0(i64 8, ptr %9) #8
  call void @llvm.lifetime.end.p0(i64 8, ptr %8) #8
  call void @llvm.lifetime.end.p0(i64 8, ptr %7) #8
  %55 = load { double, double }, ptr %4, align 8
  ret { double, double } %55
}