; Function Attrs: mustprogress nofree nounwind willreturn memory(readwrite, inaccessiblemem: write) uwtable
define internal { double, double } @_ZL15bonne_s_forward5PJ_LPP8PJconsts(double %0, double %1, ptr noundef readonly captures(none) %2) #5 {
  %4 = getelementptr inbounds nuw i8, ptr %2, i64 88
  %5 = load ptr, ptr %4, align 8, !tbaa !40
  %6 = getelementptr inbounds nuw i8, ptr %5, i64 8
  %7 = load double, ptr %6, align 8, !tbaa !55
  %8 = load double, ptr %5, align 8, !tbaa !44
  %9 = fadd double %7, %8
  %10 = fsub double %9, %1
  %11 = tail call double @llvm.fabs.f64(double %10)
  %12 = fcmp ogt double %11, 1.000000e-10
  br i1 %12, label %13, label %22

13:                                               ; preds = %3
  %14 = tail call double @cos(double noundef %1) #8, !tbaa !50
  %15 = fmul double %0, %14
  %16 = fdiv double %15, %10
  %17 = tail call double @sin(double noundef %16) #8, !tbaa !50
  %18 = fmul double %10, %17
  %19 = tail call double @cos(double noundef %16) #8, !tbaa !50
  %20 = fneg double %10
  %21 = tail call double @llvm.fmuladd.f64(double %20, double %19, double %7)
  br label %22

22:                                               ; preds = %3, %13
  %.sroa.4.0 = phi double [ %21, %13 ], [ 0.000000e+00, %3 ]
  %.sroa.011.0 = phi double [ %18, %13 ], [ 0.000000e+00, %3 ]
  %.fca.0.insert = insertvalue { double, double } poison, double %.sroa.011.0, 0
  %.fca.1.insert = insertvalue { double, double } %.fca.0.insert, double %.sroa.4.0, 1
  ret { double, double } %.fca.1.insert
}